; Function Attrs: nounwind uwtable
define void @ff_mpv_report_decode_progress(ptr noundef readonly captures(none) %0) local_unnamed_addr #3 {
  %2 = getelementptr inbounds nuw i8, ptr %0, i64 1480
  %3 = load i32, ptr %2, align 8, !tbaa !77
  %.not = icmp eq i32 %3, 3
  br i1 %.not, label %16, label %4

4:                                                ; preds = %1
  %5 = getelementptr inbounds nuw i8, ptr %0, i64 4100
  %6 = load i32, ptr %5, align 4, !tbaa !137
  %.not5 = icmp eq i32 %6, 0
  br i1 %.not5, label %7, label %16

7:                                                ; preds = %4
  %8 = getelementptr inbounds nuw i8, ptr %0, i64 4404
  %9 = load i32, ptr %8, align 4, !tbaa !138
  %.not6 = icmp eq i32 %9, 0
  br i1 %.not6, label %10, label %16

10:                                               ; preds = %7
  %11 = getelementptr inbounds nuw i8, ptr %0, i64 1208
  %12 = load ptr, ptr %11, align 8, !tbaa !103
  %13 = getelementptr inbounds nuw i8, ptr %12, i64 144
  %14 = getelementptr inbounds nuw i8, ptr %0, i64 3352
  %15 = load i32, ptr %14, align 8, !tbaa !134
  tail call void @ff_thread_progress_report(ptr noundef nonnull %13, i32 noundef %15) #10
  br label %16

16:                                               ; preds = %10, %7, %4, %1
  ret void
}